; Function Attrs: mustprogress nofree norecurse nosync nounwind willreturn memory(argmem: readwrite) uwtable
define void @_ZN14duckdb_parquet16DataPageHeaderV219__set_is_compressedEb(ptr noundef nonnull align 8 captures(none) dereferenceable(201) initializes((32, 33)) %0, i1 noundef zeroext %1) local_unnamed_addr #10 align 2 {
  %3 = zext i1 %1 to i8
  %4 = getelementptr inbounds nuw i8, ptr %0, i64 32
  store i8 %3, ptr %4, align 8, !tbaa !380
  %5 = getelementptr inbounds nuw i8, ptr %0, i64 200
  %6 = load i8, ptr %5, align 8
  %7 = or i8 %6, 1
  store i8 %7, ptr %5, align 8
  ret void
}